target datalayout = "e-m:e-p270:32:32-p271:32:32-p272:64:64-i64:64-i128:128-f80:128-n8:16:32:64-S128"
target triple = "x86_64-pc-linux-gnu"

%struct.SDL_AtomicInt = type { i32 }
%struct.SDL_HIDAPI_Device = type { ptr, ptr, ptr, ptr, i16, i16, i16, ptr, %struct.SDL_GUID, i32, i32, i32, i32, i16, i16, i8, i32, i32, i32, ptr, ptr, ptr, ptr, %struct.SDL_AtomicInt, i32, ptr, i8, i8, i8, ptr, i32, ptr, ptr }
%struct.SDL_GUID = type { [16 x i8] }

; Function Attrs: nounwind uwtable
define hidden void @HIDAPI_SetDeviceProduct(ptr noundef %0, i16 noundef zeroext %1, i16 noundef zeroext %2) #0 {
  %4 = alloca ptr, align 8
  %5 = alloca i16, align 2
  %6 = alloca i16, align 2
  %7 = alloca %struct.SDL_GUID, align 1
  store ptr %0, ptr %4, align 8
  store i16 %1, ptr %5, align 2
  store i16 %2, ptr %6, align 2
  %8 = load ptr, ptr %4, align 8
  %9 = getelementptr inbounds nuw %struct.SDL_HIDAPI_Device, ptr %8, i32 0, i32 8
  call void @llvm.lifetime.start.p0(i64 16, ptr %7) #7
  %10 = load ptr, ptr %4, align 8
  %11 = getelementptr inbounds nuw %struct.SDL_HIDAPI_Device, ptr %10, i32 0, i32 8
  %12 = getelementptr inbounds nuw %struct.SDL_GUID, ptr %11, i32 0, i32 0
  %13 = getelementptr inbounds [16 x i8], ptr %12, i64 0, i64 0
  %14 = load i8, ptr %13, align 8
  %15 = zext i8 %14 to i16
  %16 = load i16, ptr %5, align 2
  %17 = load i16, ptr %6, align 2
  %18 = load ptr, ptr %4, align 8
  %19 = getelementptr inbounds nuw %struct.SDL_HIDAPI_Device, ptr %18, i32 0, i32 6
  %20 = load i16, ptr %19, align 4
  %21 = load ptr, ptr %4, align 8
  %22 = getelementptr inbounds nuw %struct.SDL_HIDAPI_Device, ptr %21, i32 0, i32 1
  %23 = load ptr, ptr %22, align 8
  %24 = load ptr, ptr %4, align 8
  %25 = getelementptr inbounds nuw %struct.SDL_HIDAPI_Device, ptr %24, i32 0, i32 2
  %26 = load ptr, ptr %25, align 8
  %27 = call { i64, i64 } @SDL_CreateJoystickGUID(i16 noundef zeroext %15, i16 noundef zeroext %16, i16 noundef zeroext %17, i16 noundef zeroext %20, ptr noundef %23, ptr noundef %26, i8 noundef zeroext 104, i8 noundef zeroext 0)
  %28 = getelementptr inbounds nuw %struct.SDL_GUID, ptr %7, i32 0, i32 0
  %29 = getelementptr inbounds nuw { i64, i64 }, ptr %28, i32 0, i32 0
  %30 = extractvalue { i64, i64 } %27, 0
  store i64 %30, ptr %29, align 1
  %31 = getelementptr inbounds nuw { i64, i64 }, ptr %28, i32 0, i32 1
  %32 = extractvalue { i64, i64 } %27, 1
  store i64 %32, ptr %31, align 1
  call void @llvm.memcpy.p0.p0.i64(ptr align 8 %9, ptr align 1 %7, i64 16, i1 false)
  call void @llvm.lifetime.end.p0(i64 16, ptr %7) #7
  ret void
}