; Function Attrs: nounwind uwtable
define hidden void @HIDAPI_SetDeviceProduct(ptr noundef captures(none) initializes((49, 64)) %0, i16 noundef zeroext %1, i16 noundef zeroext %2) local_unnamed_addr #0 {
  %4 = getelementptr inbounds nuw i8, ptr %0, i64 48
  %5 = load i8, ptr %4, align 8
  %6 = zext i8 %5 to i16
  %7 = getelementptr inbounds nuw i8, ptr %0, i64 36
  %8 = load i16, ptr %7, align 4
  %9 = getelementptr inbounds nuw i8, ptr %0, i64 8
  %10 = load ptr, ptr %9, align 8
  %11 = getelementptr inbounds nuw i8, ptr %0, i64 16
  %12 = load ptr, ptr %11, align 8
  %13 = tail call { i64, i64 } @SDL_CreateJoystickGUID(i16 noundef zeroext %6, i16 noundef zeroext %1, i16 noundef zeroext %2, i16 noundef zeroext %8, ptr noundef %10, ptr noundef %12, i8 noundef zeroext 104, i8 noundef zeroext 0) #9
  %14 = extractvalue { i64, i64 } %13, 0
  %15 = extractvalue { i64, i64 } %13, 1
  store i64 %14, ptr %4, align 8
  %.sroa.4.0..sroa_idx = getelementptr inbounds nuw i8, ptr %0, i64 56
  store i64 %15, ptr %.sroa.4.0..sroa_idx, align 8
  ret void
}